; Function Attrs: mustprogress nofree norecurse nosync nounwind willreturn memory(read, inaccessiblemem: none) uwtable
define dso_local noundef zeroext i1 @_ZNK9struct_pb8compiler14FieldGenerator6is_ptrEv(ptr nocapture noundef nonnull readonly align 8 dereferenceable(64) %this) local_unnamed_addr #6 align 2 {
entry:
  %d_ = getelementptr inbounds i8, ptr %this, i64 56
  %0 = load ptr, ptr %d_, align 8
  %containing_type_.i = getelementptr inbounds i8, ptr %0, i64 80
  %1 = load ptr, ptr %containing_type_.i, align 8
  %tobool.not = icmp eq ptr %1, null
  br i1 %tobool.not, label %if.end, label %land.lhs.true

land.lhs.true:                                    ; preds = %entry
  %options_.i.i = getelementptr inbounds i8, ptr %1, i64 32
  %2 = load ptr, ptr %options_.i.i, align 8
  %map_entry_.i.i.i = getelementptr inbounds i8, ptr %2, i64 75
  %3 = load i8, ptr %map_entry_.i.i.i, align 1
  %4 = and i8 %3, 1
  %tobool.i.i.i.not = icmp eq i8 %4, 0
  br i1 %tobool.i.i.i.not, label %if.end, label %return

if.end:                                           ; preds = %land.lhs.true, %entry
  br label %return

return:                                           ; preds = %land.lhs.true, %if.end
  %retval.0 = phi i1 [ true, %if.end ], [ false, %land.lhs.true ]
  ret i1 %retval.0
}